target datalayout = "e-m:e-p270:32:32-p271:32:32-p272:64:64-i64:64-i128:128-f80:128-n8:16:32:64-S128"
target triple = "x86_64-pc-linux-gnu"

%struct.bn_mont_ctx_st = type { %struct.bignum_st, %struct.bignum_st, [2 x i64] }
%struct.bignum_st = type { ptr, i32, i32, i32, i32 }

; Function Attrs: nounwind uwtable
define hidden void @BN_MONT_CTX_free(ptr noundef %0) #0 {
  %2 = alloca ptr, align 8
  store ptr %0, ptr %2, align 8, !tbaa !6
  %3 = load ptr, ptr %2, align 8, !tbaa !6
  %4 = icmp eq ptr %3, null
  br i1 %4, label %5, label %6

5:                                                ; preds = %1
  br label %12

6:                                                ; preds = %1
  %7 = load ptr, ptr %2, align 8, !tbaa !6
  %8 = getelementptr inbounds nuw %struct.bn_mont_ctx_st, ptr %7, i32 0, i32 0
  call void @BN_free(ptr noundef %8)
  %9 = load ptr, ptr %2, align 8, !tbaa !6
  %10 = getelementptr inbounds nuw %struct.bn_mont_ctx_st, ptr %9, i32 0, i32 1
  call void @BN_free(ptr noundef %10)
  %11 = load ptr, ptr %2, align 8, !tbaa !6
  call void @free(ptr noundef %11) #6
  br label %12

12:                                               ; preds = %6, %5
  ret void
}