; Function Attrs: nounwind uwtable
define hidden void @BN_MONT_CTX_free(ptr noundef %0) local_unnamed_addr #0 {
  %2 = icmp eq ptr %0, null
  br i1 %2, label %5, label %3

3:                                                ; preds = %1
  tail call void @BN_free(ptr noundef nonnull %0) #6
  %4 = getelementptr inbounds nuw i8, ptr %0, i64 24
  tail call void @BN_free(ptr noundef nonnull %4) #6
  tail call void @free(ptr noundef nonnull %0) #6
  br label %5

5:                                                ; preds = %1, %3
  ret void
}